; Function Attrs: nounwind uwtable
define internal zeroext i1 @HIDAPI_DriverPS4_RumbleJoystick(ptr noundef readonly captures(none) %0, ptr readnone captures(none) %1, i16 noundef zeroext %2, i16 noundef zeroext %3) #0 {
  %5 = alloca %struct.DS4EffectsState_t, align 1
  %6 = getelementptr inbounds nuw i8, ptr %0, i64 112
  %7 = load ptr, ptr %6, align 8
  %8 = getelementptr inbounds nuw i8, ptr %7, i64 21
  %9 = load i8, ptr %8, align 1, !range !5, !noundef !6
  %10 = trunc nuw i8 %9 to i1
  br i1 %10, label %13, label %11

11:                                               ; preds = %4
  %12 = tail call zeroext i1 (ptr, ...) @SDL_SetError_REAL(ptr noundef nonnull @.str.4) #9
  br label %44

13:                                               ; preds = %4
  %14 = lshr i16 %2, 8
  %15 = trunc nuw i16 %14 to i8
  %16 = getelementptr inbounds nuw i8, ptr %7, i64 100
  store i8 %15, ptr %16, align 4
  %17 = lshr i16 %3, 8
  %18 = trunc nuw i16 %17 to i8
  %19 = getelementptr inbounds nuw i8, ptr %7, i64 101
  store i8 %18, ptr %19, align 1
  call void @llvm.lifetime.start.p0(i64 19, ptr nonnull %5) #9
  %20 = getelementptr inbounds nuw i8, ptr %5, i64 2
  call void @llvm.memset.p0.i64(ptr noundef nonnull align 1 dereferenceable(17) %20, i8 0, i64 17, i1 false)
  %21 = getelementptr inbounds nuw i8, ptr %5, i64 1
  store i8 %15, ptr %21, align 1
  store i8 %18, ptr %5, align 1
  %22 = getelementptr inbounds nuw i8, ptr %7, i64 20
  %23 = load i8, ptr %22, align 4, !range !5, !noundef !6
  %24 = trunc nuw i8 %23 to i1
  br i1 %24, label %25, label %HIDAPI_DriverPS4_UpdateEffects.exit

25:                                               ; preds = %13
  %26 = getelementptr inbounds nuw i8, ptr %7, i64 102
  %27 = load i8, ptr %26, align 2, !range !5, !noundef !6
  %28 = trunc nuw i8 %27 to i1
  br i1 %28, label %29, label %33

29:                                               ; preds = %25
  %30 = getelementptr inbounds nuw i8, ptr %7, i64 103
  %31 = getelementptr inbounds nuw i8, ptr %7, i64 104
  %32 = getelementptr inbounds nuw i8, ptr %7, i64 105
  br label %.sink.split.i

33:                                               ; preds = %25
  %34 = getelementptr inbounds nuw i8, ptr %7, i64 96
  %35 = load i32, ptr %34, align 8
  %36 = urem i32 %35, 7
  %.inv.i.i = icmp slt i32 %35, 0
  %narrow.i.i = select i1 %.inv.i.i, i32 0, i32 %36
  %.0.i.i = zext nneg i32 %narrow.i.i to i64
  %37 = getelementptr inbounds nuw [7 x [3 x i8]], ptr @SetLedsForPlayerIndex.colors, i64 0, i64 %.0.i.i
  %38 = getelementptr inbounds nuw i8, ptr %37, i64 1
  %39 = getelementptr inbounds nuw i8, ptr %37, i64 2
  br label %.sink.split.i

.sink.split.i:                                    ; preds = %33, %29
  %.sink7.in = phi ptr [ %30, %29 ], [ %37, %33 ]
  %.sink.in = phi ptr [ %31, %29 ], [ %38, %33 ]
  %.sink.in.i = phi ptr [ %32, %29 ], [ %39, %33 ]
  %.sink = load i8, ptr %.sink.in, align 1
  %.sink7 = load i8, ptr %.sink7.in, align 1
  %40 = getelementptr inbounds nuw i8, ptr %5, i64 2
  store i8 %.sink7, ptr %40, align 1
  %41 = getelementptr inbounds nuw i8, ptr %5, i64 3
  store i8 %.sink, ptr %41, align 1
  %.sink.i = load i8, ptr %.sink.in.i, align 1
  %42 = getelementptr inbounds nuw i8, ptr %5, i64 4
  store i8 %.sink.i, ptr %42, align 1
  br label %HIDAPI_DriverPS4_UpdateEffects.exit

HIDAPI_DriverPS4_UpdateEffects.exit:              ; preds = %13, %.sink.split.i
  %43 = call fastcc zeroext i1 @HIDAPI_DriverPS4_InternalSendJoystickEffect(ptr noundef nonnull %7, ptr noundef nonnull %5, i32 noundef 19, i1 noundef zeroext true)
  call void @llvm.lifetime.end.p0(i64 19, ptr nonnull %5) #9
  br label %44

44:                                               ; preds = %HIDAPI_DriverPS4_UpdateEffects.exit, %11
  %.0 = phi i1 [ %43, %HIDAPI_DriverPS4_UpdateEffects.exit ], [ %12, %11 ]
  ret i1 %.0
}